; Function Attrs: nounwind uwtable
define dso_local i32 @jobacct_storage_p_archive(ptr noundef %0, ptr noundef %1) local_unnamed_addr #0 {
  %3 = alloca %struct.persist_msg_t, align 8
  %4 = alloca %struct.persist_msg_t, align 8
  %5 = alloca %struct.dbd_cond_msg_t, align 8
  call void @llvm.lifetime.start.p0(i64 24, ptr nonnull %3) #11
  %6 = getelementptr inbounds nuw i8, ptr %3, i64 16
  store i64 0, ptr %6, align 8
  call void @llvm.lifetime.start.p0(i64 24, ptr nonnull %4) #11
  call void @llvm.memset.p0.i64(ptr noundef nonnull align 8 dereferenceable(24) %4, i8 0, i64 24, i1 false)
  call void @llvm.lifetime.start.p0(i64 8, ptr nonnull %5) #11
  store ptr %1, ptr %5, align 8
  %7 = getelementptr inbounds nuw i8, ptr %3, i64 16
  store i16 1459, ptr %7, align 8
  store ptr %0, ptr %3, align 8
  %8 = getelementptr inbounds nuw i8, ptr %3, i64 8
  store ptr %5, ptr %8, align 8
  %9 = call i32 @dbd_conn_send_recv(i16 noundef zeroext 11008, ptr noundef nonnull %3, ptr noundef nonnull %4) #11
  %.not = icmp eq i32 %9, 0
  br i1 %.not, label %12, label %10

10:                                               ; preds = %2
  %11 = call i32 (ptr, ...) @slurm_error(ptr noundef nonnull @.str.80) #11
  br label %34

12:                                               ; preds = %2
  %13 = getelementptr inbounds nuw i8, ptr %4, i64 16
  %14 = load i16, ptr %13, align 8
  %15 = icmp eq i16 %14, 1433
  br i1 %15, label %16, label %32

16:                                               ; preds = %12
  %17 = getelementptr inbounds nuw i8, ptr %4, i64 8
  %18 = load ptr, ptr %17, align 8
  %19 = getelementptr inbounds nuw i8, ptr %18, i64 12
  %20 = load i32, ptr %19, align 4
  %21 = icmp eq i32 %20, 0
  br i1 %21, label %22, label %27

22:                                               ; preds = %16
  %23 = call i32 @slurm_get_log_level() #11
  %24 = icmp sgt i32 %23, 2
  br i1 %24, label %25, label %31

25:                                               ; preds = %22
  %26 = load ptr, ptr %18, align 8
  call void (i32, ptr, ...) @slurm_log_var(i32 noundef 3, ptr noundef nonnull @.str.24, ptr noundef nonnull @plugin_type, ptr noundef nonnull @__func__.jobacct_storage_p_archive, ptr noundef %26) #11
  br label %31

27:                                               ; preds = %16
  %28 = tail call ptr @__errno_location() #12
  store i32 %20, ptr %28, align 4
  %29 = load ptr, ptr %18, align 8
  %30 = call i32 (ptr, ...) @slurm_error(ptr noundef nonnull @.str.7, ptr noundef %29) #11
  br label %31

31:                                               ; preds = %22, %25, %27
  call void @slurm_persist_free_rc_msg(ptr noundef nonnull %18) #11
  br label %34

32:                                               ; preds = %12
  %33 = call i32 (ptr, ...) @slurm_error(ptr noundef nonnull @.str.81) #11
  br label %34

34:                                               ; preds = %31, %32, %10
  %.0 = phi i32 [ %9, %10 ], [ %20, %31 ], [ -1, %32 ]
  call void @llvm.lifetime.end.p0(i64 8, ptr nonnull %5) #11
  call void @llvm.lifetime.end.p0(i64 24, ptr nonnull %4) #11
  call void @llvm.lifetime.end.p0(i64 24, ptr nonnull %3) #11
  ret i32 %.0
}